(lp0
(lp1
(lp2
(lp3
F21699.0
aI23807
aa(lp4
F22367.0
aI23866
aaa(lp5
(lp6
F4495.799999999999
aI22377
aa(lp7
F4961.999999999999
aI27325
aaaa(lp8
(lp9
(lp10
F20107.0
aI26536
aa(lp11
F29678.0
aI28182
aaa(lp12
(lp13
F4628.999999999999
aI23916
aa(lp14
F5944.199999999999
aI20212
aaaa(lp15
(lp16
(lp17
F27500.0
aI28219
aa(lp18
F24238.0
aI24933
aaa(lp19
(lp20
F5447.399999999999
aI21578
aa(lp21
F5314.799999999999
aI20654
aaaa(lp22
(lp23
(lp24
F27609.0
aI25791
aa(lp25
F20880.0
aI21719
aaa(lp26
(lp27
F5826.399999999999
aI29504
aa(lp28
F5664.799999999998
aI27237
aaaa(lp29
(lp30
(lp31
F29997.0
aI20403
aa(lp32
F26706.0
aI23586
aaa(lp33
(lp34
F5792.5999999999985
aI24994
aa(lp35
F5063.799999999999
aI28039
aaaa.